; ModuleID = '35/93.c'
source_filename = "35/93.c"
target datalayout = "e-m:e-p270:32:32-p271:32:32-p272:64:64-i64:64-f80:128-n8:16:32:64-S128"
target triple = "x86_64-pc-linux-gnu"

@.str = private unnamed_addr constant [6 x i8] c"%d,%d\00", align 1
@.str.1 = private unnamed_addr constant [3 x i8] c"%d\00", align 1
@.str.2 = private unnamed_addr constant [6 x i8] c"%d+%d\00", align 1
@.str.3 = private unnamed_addr constant [3 x i8] c"No\00", align 1

; Function Attrs: noinline nounwind uwtable
define dso_local void @main() #0 {
  %1 = alloca i32, align 4
  %2 = alloca i32, align 4
  %3 = alloca i32, align 4
  %4 = alloca i32, align 4
  %5 = alloca i32, align 4
  %6 = alloca [8 x [8 x i32]], align 16
  %7 = alloca [8 x i32], align 16
  %8 = alloca [8 x i32], align 16
  %9 = call i32 (i8*, ...) @__isoc99_scanf(i8* getelementptr inbounds ([6 x i8], [6 x i8]* @.str, i64 0, i64 0), i32* %3, i32* %4)
  store i32 0, i32* %1, align 4
  br label %10

10:                                               ; preds = %31, %0
  %11 = load i32, i32* %1, align 4
  %12 = load i32, i32* %3, align 4
  %13 = icmp slt i32 %11, %12
  br i1 %13, label %14, label %34

14:                                               ; preds = %10
  store i32 0, i32* %2, align 4
  br label %15

15:                                               ; preds = %27, %14
  %16 = load i32, i32* %2, align 4
  %17 = load i32, i32* %4, align 4
  %18 = icmp slt i32 %16, %17
  br i1 %18, label %19, label %30

19:                                               ; preds = %15
  %20 = load i32, i32* %1, align 4
  %21 = sext i32 %20 to i64
  %22 = getelementptr inbounds [8 x [8 x i32]], [8 x [8 x i32]]* %6, i64 0, i64 %21
  %23 = load i32, i32* %2, align 4
  %24 = sext i32 %23 to i64
  %25 = getelementptr inbounds [8 x i32], [8 x i32]* %22, i64 0, i64 %24
  %26 = call i32 (i8*, ...) @__isoc99_scanf(i8* getelementptr inbounds ([3 x i8], [3 x i8]* @.str.1, i64 0, i64 0), i32* %25)
  br label %27

27:                                               ; preds = %19
  %28 = load i32, i32* %2, align 4
  %29 = add nsw i32 %28, 1
  store i32 %29, i32* %2, align 4
  br label %15

30:                                               ; preds = %15
  br label %31

31:                                               ; preds = %30
  %32 = load i32, i32* %1, align 4
  %33 = add nsw i32 %32, 1
  store i32 %33, i32* %1, align 4
  br label %10

34:                                               ; preds = %10
  %35 = load i32, i32* %3, align 4
  store i32 %35, i32* %5, align 4
  store i32 0, i32* %1, align 4
  br label %36

36:                                               ; preds = %87, %34
  %37 = load i32, i32* %1, align 4
  %38 = load i32, i32* %3, align 4
  %39 = icmp slt i32 %37, %38
  br i1 %39, label %40, label %90

40:                                               ; preds = %36
  %41 = load i32, i32* %1, align 4
  %42 = sext i32 %41 to i64
  %43 = getelementptr inbounds [8 x [8 x i32]], [8 x [8 x i32]]* %6, i64 0, i64 %42
  %44 = getelementptr inbounds [8 x i32], [8 x i32]* %43, i64 0, i64 0
  %45 = load i32, i32* %44, align 16
  %46 = load i32, i32* %1, align 4
  %47 = sext i32 %46 to i64
  %48 = getelementptr inbounds [8 x i32], [8 x i32]* %7, i64 0, i64 %47
  store i32 %45, i32* %48, align 4
  store i32 0, i32* %5, align 4
  store i32 0, i32* %2, align 4
  br label %49

49:                                               ; preds = %79, %40
  %50 = load i32, i32* %2, align 4
  %51 = load i32, i32* %4, align 4
  %52 = icmp slt i32 %50, %51
  br i1 %52, label %53, label %82

53:                                               ; preds = %49
  %54 = load i32, i32* %1, align 4
  %55 = sext i32 %54 to i64
  %56 = getelementptr inbounds [8 x i32], [8 x i32]* %7, i64 0, i64 %55
  %57 = load i32, i32* %56, align 4
  %58 = load i32, i32* %1, align 4
  %59 = sext i32 %58 to i64
  %60 = getelementptr inbounds [8 x [8 x i32]], [8 x [8 x i32]]* %6, i64 0, i64 %59
  %61 = load i32, i32* %2, align 4
  %62 = sext i32 %61 to i64
  %63 = getelementptr inbounds [8 x i32], [8 x i32]* %60, i64 0, i64 %62
  %64 = load i32, i32* %63, align 4
  %65 = icmp slt i32 %57, %64
  br i1 %65, label %66, label %78

66:                                               ; preds = %53
  %67 = load i32, i32* %2, align 4
  store i32 %67, i32* %5, align 4
  %68 = load i32, i32* %1, align 4
  %69 = sext i32 %68 to i64
  %70 = getelementptr inbounds [8 x [8 x i32]], [8 x [8 x i32]]* %6, i64 0, i64 %69
  %71 = load i32, i32* %2, align 4
  %72 = sext i32 %71 to i64
  %73 = getelementptr inbounds [8 x i32], [8 x i32]* %70, i64 0, i64 %72
  %74 = load i32, i32* %73, align 4
  %75 = load i32, i32* %1, align 4
  %76 = sext i32 %75 to i64
  %77 = getelementptr inbounds [8 x i32], [8 x i32]* %7, i64 0, i64 %76
  store i32 %74, i32* %77, align 4
  br label %78

78:                                               ; preds = %66, %53
  br label %79

79:                                               ; preds = %78
  %80 = load i32, i32* %2, align 4
  %81 = add nsw i32 %80, 1
  store i32 %81, i32* %2, align 4
  br label %49

82:                                               ; preds = %49
  %83 = load i32, i32* %5, align 4
  %84 = load i32, i32* %1, align 4
  %85 = sext i32 %84 to i64
  %86 = getelementptr inbounds [8 x i32], [8 x i32]* %7, i64 0, i64 %85
  store i32 %83, i32* %86, align 4
  br label %87

87:                                               ; preds = %82
  %88 = load i32, i32* %1, align 4
  %89 = add nsw i32 %88, 1
  store i32 %89, i32* %1, align 4
  br label %36

90:                                               ; preds = %36
  store i32 0, i32* %1, align 4
  br label %91

91:                                               ; preds = %142, %90
  %92 = load i32, i32* %1, align 4
  %93 = load i32, i32* %4, align 4
  %94 = icmp slt i32 %92, %93
  br i1 %94, label %95, label %145

95:                                               ; preds = %91
  %96 = getelementptr inbounds [8 x [8 x i32]], [8 x [8 x i32]]* %6, i64 0, i64 0
  %97 = load i32, i32* %1, align 4
  %98 = sext i32 %97 to i64
  %99 = getelementptr inbounds [8 x i32], [8 x i32]* %96, i64 0, i64 %98
  %100 = load i32, i32* %99, align 4
  %101 = load i32, i32* %1, align 4
  %102 = sext i32 %101 to i64
  %103 = getelementptr inbounds [8 x i32], [8 x i32]* %8, i64 0, i64 %102
  store i32 %100, i32* %103, align 4
  store i32 0, i32* %5, align 4
  store i32 0, i32* %2, align 4
  br label %104

104:                                              ; preds = %134, %95
  %105 = load i32, i32* %2, align 4
  %106 = load i32, i32* %3, align 4
  %107 = icmp slt i32 %105, %106
  br i1 %107, label %108, label %137

108:                                              ; preds = %104
  %109 = load i32, i32* %1, align 4
  %110 = sext i32 %109 to i64
  %111 = getelementptr inbounds [8 x i32], [8 x i32]* %8, i64 0, i64 %110
  %112 = load i32, i32* %111, align 4
  %113 = load i32, i32* %2, align 4
  %114 = sext i32 %113 to i64
  %115 = getelementptr inbounds [8 x [8 x i32]], [8 x [8 x i32]]* %6, i64 0, i64 %114
  %116 = load i32, i32* %1, align 4
  %117 = sext i32 %116 to i64
  %118 = getelementptr inbounds [8 x i32], [8 x i32]* %115, i64 0, i64 %117
  %119 = load i32, i32* %118, align 4
  %120 = icmp sgt i32 %112, %119
  br i1 %120, label %121, label %133

121:                                              ; preds = %108
  %122 = load i32, i32* %2, align 4
  store i32 %122, i32* %5, align 4
  %123 = load i32, i32* %2, align 4
  %124 = sext i32 %123 to i64
  %125 = getelementptr inbounds [8 x [8 x i32]], [8 x [8 x i32]]* %6, i64 0, i64 %124
  %126 = load i32, i32* %1, align 4
  %127 = sext i32 %126 to i64
  %128 = getelementptr inbounds [8 x i32], [8 x i32]* %125, i64 0, i64 %127
  %129 = load i32, i32* %128, align 4
  %130 = load i32, i32* %1, align 4
  %131 = sext i32 %130 to i64
  %132 = getelementptr inbounds [8 x i32], [8 x i32]* %8, i64 0, i64 %131
  store i32 %129, i32* %132, align 4
  br label %133

133:                                              ; preds = %121, %108
  br label %134

134:                                              ; preds = %133
  %135 = load i32, i32* %2, align 4
  %136 = add nsw i32 %135, 1
  store i32 %136, i32* %2, align 4
  br label %104

137:                                              ; preds = %104
  %138 = load i32, i32* %5, align 4
  %139 = load i32, i32* %1, align 4
  %140 = sext i32 %139 to i64
  %141 = getelementptr inbounds [8 x i32], [8 x i32]* %8, i64 0, i64 %140
  store i32 %138, i32* %141, align 4
  br label %142

142:                                              ; preds = %137
  %143 = load i32, i32* %1, align 4
  %144 = add nsw i32 %143, 1
  store i32 %144, i32* %1, align 4
  br label %91

145:                                              ; preds = %91
  store i32 0, i32* %1, align 4
  br label %146

146:                                              ; preds = %168, %145
  %147 = load i32, i32* %1, align 4
  %148 = load i32, i32* %3, align 4
  %149 = icmp slt i32 %147, %148
  br i1 %149, label %150, label %171

150:                                              ; preds = %146
  %151 = load i32, i32* %1, align 4
  %152 = sext i32 %151 to i64
  %153 = getelementptr inbounds [8 x i32], [8 x i32]* %7, i64 0, i64 %152
  %154 = load i32, i32* %153, align 4
  %155 = sext i32 %154 to i64
  %156 = getelementptr inbounds [8 x i32], [8 x i32]* %8, i64 0, i64 %155
  %157 = load i32, i32* %156, align 4
  %158 = load i32, i32* %1, align 4
  %159 = icmp eq i32 %157, %158
  br i1 %159, label %160, label %167

160:                                              ; preds = %150
  %161 = load i32, i32* %1, align 4
  %162 = load i32, i32* %1, align 4
  %163 = sext i32 %162 to i64
  %164 = getelementptr inbounds [8 x i32], [8 x i32]* %7, i64 0, i64 %163
  %165 = load i32, i32* %164, align 4
  %166 = call i32 (i8*, ...) @printf(i8* getelementptr inbounds ([6 x i8], [6 x i8]* @.str.2, i64 0, i64 0), i32 %161, i32 %165)
  br label %171

167:                                              ; preds = %150
  br label %168

168:                                              ; preds = %167
  %169 = load i32, i32* %1, align 4
  %170 = add nsw i32 %169, 1
  store i32 %170, i32* %1, align 4
  br label %146

171:                                              ; preds = %160, %146
  %172 = load i32, i32* %1, align 4
  %173 = load i32, i32* %3, align 4
  %174 = icmp eq i32 %172, %173
  br i1 %174, label %175, label %177

175:                                              ; preds = %171
  %176 = call i32 (i8*, ...) @printf(i8* getelementptr inbounds ([3 x i8], [3 x i8]* @.str.3, i64 0, i64 0))
  br label %177

177:                                              ; preds = %175, %171
  ret void
}

declare dso_local i32 @__isoc99_scanf(i8*, ...) #1

declare dso_local i32 @printf(i8*, ...) #1


!llvm.module.flags = !{!0}
!llvm.ident = !{!1}

!0 = !{i32 1, !"wchar_size", i32 4}
!1 = !{!"clang version 10.0.0-4ubuntu1 "}
